target datalayout = "e-m:e-p270:32:32-p271:32:32-p272:64:64-i64:64-i128:128-f80:128-n8:16:32:64-S128"
target triple = "x86_64-pc-linux-gnu"

%struct._zend_phpdbg_globals = type { [11 x %struct._zend_array], %struct._zend_array, %struct._zend_array, ptr, ptr, %struct.phpdbg_frame_t, i32, ptr, %struct.phpdbg_lexer_data, ptr, %struct.sigaction, i32, i64, %struct.phpdbg_btree, %struct.phpdbg_btree, %struct._zend_array, %struct._zend_array, %struct._zend_array, %struct._zend_array, ptr, ptr, i8, ptr, ptr, ptr, i64, ptr, %struct._zval_struct, i32, i32, i8, i8, ptr, ptr, ptr, %struct._zend_array, ptr, ptr, ptr, [3 x %struct.anon.10], ptr, %struct.anon.11, i64, [2 x ptr], [3 x ptr], ptr, i8, ptr, ptr, [500 x i8], i32, %struct.phpdbg_signal_safe_mem, ptr, i64, ptr, i64 }
%struct.phpdbg_frame_t = type { i32, ptr, ptr }
%struct.phpdbg_lexer_data = type { i32, ptr, ptr, ptr, ptr, i32 }
%struct.sigaction = type { %union.anon.4, %struct.__sigset_t, i32, ptr }
%union.anon.4 = type { ptr }
%struct.__sigset_t = type { [16 x i64] }
%struct.phpdbg_btree = type { i64, i64, i8, ptr }
%struct._zval_struct = type { %union._zend_value, %union.anon.6, %union.anon.9 }
%union._zend_value = type { i64 }
%union.anon.6 = type { i32 }
%union.anon.9 = type { i32 }
%struct._zend_array = type { %struct._zend_refcounted_h, %union.anon.1, i32, %union.anon.3, i32, i32, i32, i32, i64, ptr }
%struct._zend_refcounted_h = type { i32, %union.anon }
%union.anon = type { i32 }
%union.anon.1 = type { i32 }
%union.anon.3 = type { ptr }
%struct.anon.10 = type { i32 }
%struct.anon.11 = type { i8, i32, i32, ptr, i32 }
%struct.phpdbg_signal_safe_mem = type { ptr, i8, ptr, ptr }
%struct._phpdbg_param = type { i32, i64, i64, %struct.anon, %struct.anon.0, ptr, i64, ptr, ptr }
%struct.anon = type { ptr, i64 }
%struct.anon.0 = type { ptr, ptr }

@phpdbg_globals = external global %struct._zend_phpdbg_globals, align 8
@.str.26 = private unnamed_addr constant [14 x i8] c"Pagination %s\00", align 1
@.str.27 = private unnamed_addr constant [3 x i8] c"on\00", align 1
@.str.28 = private unnamed_addr constant [4 x i8] c"off\00", align 1
@.str.29 = private unnamed_addr constant [57 x i8] c"set pagination used incorrectly: set pagination <on|off>\00", align 1

; Function Attrs: nounwind uwtable
define hidden i32 @phpdbg_do_set_pagination(ptr noundef %0) #0 {
  %2 = alloca ptr, align 8
  store ptr %0, ptr %2, align 8
  %3 = load ptr, ptr %2, align 8
  %4 = icmp ne ptr %3, null
  br i1 %4, label %5, label %10

5:                                                ; preds = %1
  %6 = load ptr, ptr %2, align 8
  %7 = getelementptr inbounds %struct._phpdbg_param, ptr %6, i32 0, i32 0
  %8 = load i32, ptr %7, align 8
  %9 = icmp eq i32 %8, 0
  br i1 %9, label %10, label %17

10:                                               ; preds = %5, %1
  %11 = load i32, ptr getelementptr inbounds (%struct._zend_phpdbg_globals, ptr @phpdbg_globals, i32 0, i32 39, i64 1), align 4
  %12 = load i64, ptr getelementptr inbounds (%struct._zend_phpdbg_globals, ptr @phpdbg_globals, i32 0, i32 53), align 8
  %13 = and i64 %12, 8589934592
  %14 = icmp ne i64 %13, 0
  %15 = select i1 %14, ptr @.str.27, ptr @.str.28
  %16 = call i32 (i32, i32, ptr, ...) @phpdbg_print(i32 noundef 3, i32 noundef %11, ptr noundef @.str.26, ptr noundef %15)
  br label %37

17:                                               ; preds = %5
  %18 = load ptr, ptr %2, align 8
  %19 = getelementptr inbounds %struct._phpdbg_param, ptr %18, i32 0, i32 0
  %20 = load i32, ptr %19, align 8
  switch i32 %20, label %33 [
    i32 6, label %21
  ]

21:                                               ; preds = %17
  %22 = load ptr, ptr %2, align 8
  %23 = getelementptr inbounds %struct._phpdbg_param, ptr %22, i32 0, i32 1
  %24 = load i64, ptr %23, align 8
  %25 = icmp ne i64 %24, 0
  br i1 %25, label %26, label %29

26:                                               ; preds = %21
  %27 = load i64, ptr getelementptr inbounds (%struct._zend_phpdbg_globals, ptr @phpdbg_globals, i32 0, i32 53), align 8
  %28 = or i64 %27, 8589934592
  store i64 %28, ptr getelementptr inbounds (%struct._zend_phpdbg_globals, ptr @phpdbg_globals, i32 0, i32 53), align 8
  br label %32

29:                                               ; preds = %21
  %30 = load i64, ptr getelementptr inbounds (%struct._zend_phpdbg_globals, ptr @phpdbg_globals, i32 0, i32 53), align 8
  %31 = and i64 %30, -8589934593
  store i64 %31, ptr getelementptr inbounds (%struct._zend_phpdbg_globals, ptr @phpdbg_globals, i32 0, i32 53), align 8
  br label %32

32:                                               ; preds = %29, %26
  br label %36

33:                                               ; preds = %17
  %34 = load i32, ptr getelementptr inbounds (%struct._zend_phpdbg_globals, ptr @phpdbg_globals, i32 0, i32 39, i64 1), align 4
  %35 = call i32 (i32, i32, ptr, ...) @phpdbg_print(i32 noundef 1, i32 noundef %34, ptr noundef @.str.29)
  br label %36

36:                                               ; preds = %33, %32
  br label %37

37:                                               ; preds = %36, %10
  ret i32 0
}